target datalayout = "e-m:e-p270:32:32-p271:32:32-p272:64:64-i64:64-i128:128-f80:128-n8:16:32:64-S128"
target triple = "x86_64-pc-linux-gnu"

%struct.ffio = type { ptr, ptr, ptr, ptr, ptr, i64, i64, i64, i64, i64, i64, i64, i8 }

; Function Attrs: mustprogress nounwind uwtable
define internal noundef ptr @_ZL12ffio_destroyP4ffio(ptr noundef %0) #0 {
  %2 = alloca ptr, align 8
  store ptr %0, ptr %2, align 8
  %3 = load ptr, ptr %2, align 8
  %4 = getelementptr inbounds %struct.ffio, ptr %3, i32 0, i32 3
  %5 = load ptr, ptr %4, align 8
  call void @free(ptr noundef %5) #13
  %6 = load ptr, ptr %2, align 8
  %7 = getelementptr inbounds %struct.ffio, ptr %6, i32 0, i32 4
  %8 = load ptr, ptr %7, align 8
  call void @free(ptr noundef %8) #13
  %9 = load ptr, ptr %2, align 8
  call void @free(ptr noundef %9) #13
  ret ptr null
}