; Function Attrs: mustprogress norecurse nounwind willreturn uwtable
define internal fastcc void @_ZL12ffio_destroyP4ffio(ptr nocapture noundef %0) unnamed_addr #14 {
  %2 = getelementptr inbounds i8, ptr %0, i64 24
  %3 = load ptr, ptr %2, align 8
  tail call void @free(ptr noundef %3) #26
  %4 = getelementptr inbounds i8, ptr %0, i64 32
  %5 = load ptr, ptr %4, align 8
  tail call void @free(ptr noundef %5) #26
  tail call void @free(ptr noundef %0) #26
  ret void
}